; Function Attrs: nounwind uwtable
define ptr @CMS_digest_create(ptr noundef %0, ptr noundef %1, i32 noundef %2) local_unnamed_addr #0 {
  %4 = icmp eq ptr %1, null
  br i1 %4, label %5, label %7

5:                                                ; preds = %3
  %6 = tail call ptr @EVP_sha1() #4
  br label %7

7:                                                ; preds = %5, %3
  %.013.i = phi ptr [ %6, %5 ], [ %1, %3 ]
  %8 = tail call ptr @ossl_cms_DigestedData_create(ptr noundef %.013.i, ptr noundef null, ptr noundef null) #4
  %9 = icmp eq ptr %8, null
  br i1 %9, label %CMS_digest_create_ex.exit, label %10

10:                                               ; preds = %7
  %11 = and i32 %2, 64
  %.not.i = icmp eq i32 %11, 0
  br i1 %.not.i, label %12, label %14

12:                                               ; preds = %10
  %13 = tail call i32 @CMS_set_detached(ptr noundef nonnull %8, i32 noundef 0) #4
  br label %14

14:                                               ; preds = %12, %10
  %15 = and i32 %2, 4096
  %.not16.i = icmp eq i32 %15, 0
  br i1 %.not16.i, label %16, label %CMS_digest_create_ex.exit

16:                                               ; preds = %14
  %17 = tail call i32 @CMS_final(ptr noundef nonnull %8, ptr noundef %0, ptr noundef null, i32 noundef %2)
  %.not17.i = icmp eq i32 %17, 0
  br i1 %.not17.i, label %18, label %CMS_digest_create_ex.exit

18:                                               ; preds = %16
  tail call void @CMS_ContentInfo_free(ptr noundef nonnull %8) #4
  br label %CMS_digest_create_ex.exit

CMS_digest_create_ex.exit:                        ; preds = %7, %14, %16, %18
  %.0.i = phi ptr [ null, %18 ], [ null, %7 ], [ %8, %16 ], [ %8, %14 ]
  ret ptr %.0.i
}